target datalayout = "e-m:e-p270:32:32-p271:32:32-p272:64:64-i64:64-i128:128-f80:128-n8:16:32:64-S128"
target triple = "x86_64-pc-linux-gnu"

%"class.open3d::pipelines::registration::HuberLoss" = type { %"class.open3d::pipelines::registration::RobustKernel", double }
%"class.open3d::pipelines::registration::RobustKernel" = type { ptr }

; Function Attrs: inlinehint mustprogress nounwind ssp uwtable
define linkonce_odr noundef nonnull align 8 dereferenceable(8) ptr @_ZSt3maxIdERKT_S2_S2_(ptr noundef nonnull align 8 dereferenceable(8) %0, ptr noundef nonnull align 8 dereferenceable(8) %1) #0 comdat {
  %3 = alloca ptr, align 8
  %4 = alloca ptr, align 8
  %5 = alloca ptr, align 8
  store ptr %0, ptr %4, align 8, !tbaa !32
  store ptr %1, ptr %5, align 8, !tbaa !32
  %6 = load ptr, ptr %4, align 8, !tbaa !32
  %7 = load double, ptr %6, align 8, !tbaa !9
  %8 = load ptr, ptr %5, align 8, !tbaa !32
  %9 = load double, ptr %8, align 8, !tbaa !9
  %10 = fcmp olt double %7, %9
  br i1 %10, label %11, label %13

11:                                               ; preds = %2
  %12 = load ptr, ptr %5, align 8, !tbaa !32
  store ptr %12, ptr %3, align 8
  br label %15

13:                                               ; preds = %2
  %14 = load ptr, ptr %4, align 8, !tbaa !32
  store ptr %14, ptr %3, align 8
  br label %15

15:                                               ; preds = %13, %11
  %16 = load ptr, ptr %3, align 8
  ret ptr %16
}

; Function Attrs: inlinehint mustprogress nounwind ssp uwtable
define linkonce_odr noundef double @_ZSt3absd(double noundef %0) #0 comdat {
  %2 = alloca double, align 8
  store double %0, ptr %2, align 8, !tbaa !9
  %3 = load double, ptr %2, align 8, !tbaa !9
  %4 = call double @llvm.fabs.f64(double %3)
  ret double %4
}

; Function Attrs: mustprogress ssp uwtable
define noundef double @_ZNK6open3d9pipelines12registration9HuberLoss6WeightEd(ptr noundef nonnull align 8 dereferenceable(16) %0, double noundef %1) unnamed_addr #1 align 2 {
  %3 = alloca ptr, align 8
  %4 = alloca double, align 8
  %5 = alloca double, align 8
  store ptr %0, ptr %3, align 8, !tbaa !4
  store double %1, ptr %4, align 8, !tbaa !9
  %6 = load ptr, ptr %3, align 8
  call void @llvm.lifetime.start.p0(i64 8, ptr %5) #6
  %7 = load double, ptr %4, align 8, !tbaa !9
  %8 = call noundef double @_ZSt3absd(double noundef %7)
  store double %8, ptr %5, align 8, !tbaa !9
  %9 = getelementptr inbounds nuw %"class.open3d::pipelines::registration::HuberLoss", ptr %6, i32 0, i32 1
  %10 = load double, ptr %9, align 8, !tbaa !11
  %11 = getelementptr inbounds nuw %"class.open3d::pipelines::registration::HuberLoss", ptr %6, i32 0, i32 1
  %12 = call noundef nonnull align 8 dereferenceable(8) ptr @_ZSt3maxIdERKT_S2_S2_(ptr noundef nonnull align 8 dereferenceable(8) %5, ptr noundef nonnull align 8 dereferenceable(8) %11)
  %13 = load double, ptr %12, align 8, !tbaa !9
  %14 = fdiv double %10, %13
  call void @llvm.lifetime.end.p0(i64 8, ptr %5) #6
  ret double %14
}