; Function Attrs: mustprogress nofree norecurse nosync nounwind ssp willreturn memory(argmem: read) uwtable
define noundef double @_ZNK6open3d9pipelines12registration9HuberLoss6WeightEd(ptr noundef nonnull readonly align 8 captures(none) dereferenceable(16) %0, double noundef %1) unnamed_addr #1 align 2 {
  %3 = tail call noundef double @llvm.fabs.f64(double %1)
  %4 = getelementptr inbounds nuw i8, ptr %0, i64 8
  %5 = load double, ptr %4, align 8, !tbaa !4
  %6 = fcmp olt double %3, %5
  %.sroa.speculated = select i1 %6, double %5, double %3
  %7 = fdiv double %5, %.sroa.speculated
  ret double %7
}